; Function Attrs: nounwind uwtable
define range(i64 -64, 1) i64 @ZSTD_CCtx_loadDictionary_advanced(ptr noundef captures(none) %0, ptr noundef %1, i64 noundef %2, i32 noundef %3, i32 noundef %4) local_unnamed_addr #2 {
  %6 = getelementptr inbounds nuw i8, ptr %0, i64 3640
  %7 = load i32, ptr %6, align 8, !tbaa !81
  %.not = icmp eq i32 %7, 0
  br i1 %.not, label %8, label %.thread

8:                                                ; preds = %5
  tail call fastcc void @ZSTD_clearAllDicts(ptr noundef nonnull %0)
  %9 = icmp eq ptr %1, null
  %10 = icmp eq i64 %2, 0
  %or.cond = or i1 %9, %10
  br i1 %or.cond, label %.thread, label %11

11:                                               ; preds = %8
  %12 = icmp eq i32 %3, 1
  br i1 %12, label %26, label %13

13:                                               ; preds = %11
  %14 = getelementptr inbounds nuw i8, ptr %0, i64 928
  %15 = load i64, ptr %14, align 8, !tbaa !49
  %.not28 = icmp eq i64 %15, 0
  br i1 %.not28, label %16, label %.thread

16:                                               ; preds = %13
  %17 = getelementptr inbounds nuw i8, ptr %0, i64 896
  %.val = load ptr, ptr %17, align 8, !tbaa !45
  %.not.i = icmp eq ptr %.val, null
  br i1 %.not.i, label %21, label %18

18:                                               ; preds = %16
  %19 = getelementptr i8, ptr %0, i64 912
  %.val29 = load ptr, ptr %19, align 8
  %20 = tail call ptr %.val(ptr noundef %.val29, i64 noundef %2) #28
  br label %ZSTD_customMalloc.exit

21:                                               ; preds = %16
  %22 = tail call noalias ptr @malloc(i64 noundef %2) #29
  br label %ZSTD_customMalloc.exit

ZSTD_customMalloc.exit:                           ; preds = %18, %21
  %.0.i = phi ptr [ %20, %18 ], [ %22, %21 ]
  %23 = icmp eq ptr %.0.i, null
  br i1 %23, label %.thread, label %24

24:                                               ; preds = %ZSTD_customMalloc.exit
  tail call void @llvm.memcpy.p0.p0.i64(ptr nonnull align 1 %.0.i, ptr nonnull align 1 %1, i64 %2, i1 false)
  %25 = getelementptr inbounds nuw i8, ptr %0, i64 3688
  store ptr %.0.i, ptr %25, align 8, !tbaa !119
  br label %26

26:                                               ; preds = %11, %24
  %.0.i.sink = phi ptr [ %.0.i, %24 ], [ %1, %11 ]
  %27 = getelementptr inbounds nuw i8, ptr %0, i64 3696
  store ptr %.0.i.sink, ptr %27, align 8, !tbaa !120
  %28 = getelementptr inbounds nuw i8, ptr %0, i64 3704
  store i64 %2, ptr %28, align 8, !tbaa !121
  %29 = getelementptr inbounds nuw i8, ptr %0, i64 3712
  store i32 %4, ptr %29, align 8, !tbaa !122
  br label %.thread

.thread:                                          ; preds = %ZSTD_customMalloc.exit, %13, %8, %5, %26
  %.024 = phi i64 [ 0, %26 ], [ -60, %5 ], [ 0, %8 ], [ -64, %13 ], [ -64, %ZSTD_customMalloc.exit ]
  ret i64 %.024
}